; ModuleID = '22/597.c'
source_filename = "22/597.c"
target datalayout = "e-m:e-p270:32:32-p271:32:32-p272:64:64-i64:64-f80:128-n8:16:32:64-S128"
target triple = "x86_64-pc-linux-gnu"

@.str = private unnamed_addr constant [3 x i8] c"%d\00", align 1
@.str.1 = private unnamed_addr constant [3 x i8] c"%c\00", align 1
@.str.2 = private unnamed_addr constant [4 x i8] c"No\0A\00", align 1
@.str.3 = private unnamed_addr constant [3 x i8] c"No\00", align 1
@.str.4 = private unnamed_addr constant [4 x i8] c"%d\0A\00", align 1

; Function Attrs: noinline nounwind uwtable
define dso_local i32 @main() #0 {
  %1 = alloca i32, align 4
  %2 = alloca [300 x i32], align 16
  %3 = alloca [300 x i32], align 16
  %4 = alloca i32, align 4
  %5 = alloca i32, align 4
  %6 = alloca i32, align 4
  %7 = alloca i32, align 4
  %8 = alloca i32, align 4
  %9 = alloca i32, align 4
  %10 = alloca i8, align 1
  store i32 0, i32* %1, align 4
  store i32 0, i32* %7, align 4
  store i32 0, i32* %8, align 4
  br label %11

11:                                               ; preds = %0, %23
  %12 = load i32, i32* %7, align 4
  %13 = sext i32 %12 to i64
  %14 = getelementptr inbounds [300 x i32], [300 x i32]* %2, i64 0, i64 %13
  %15 = call i32 (i8*, ...) @__isoc99_scanf(i8* getelementptr inbounds ([3 x i8], [3 x i8]* @.str, i64 0, i64 0), i32* %14)
  %16 = call i32 (i8*, ...) @__isoc99_scanf(i8* getelementptr inbounds ([3 x i8], [3 x i8]* @.str.1, i64 0, i64 0), i8* %10)
  %17 = load i32, i32* %7, align 4
  %18 = add nsw i32 %17, 1
  store i32 %18, i32* %7, align 4
  %19 = load i8, i8* %10, align 1
  %20 = sext i8 %19 to i32
  %21 = icmp eq i32 %20, 10
  br i1 %21, label %22, label %23

22:                                               ; preds = %11
  br label %24

23:                                               ; preds = %11
  br label %11

24:                                               ; preds = %22
  %25 = load i32, i32* %7, align 4
  %26 = icmp eq i32 %25, 1
  br i1 %26, label %27, label %29

27:                                               ; preds = %24
  %28 = call i32 (i8*, ...) @printf(i8* getelementptr inbounds ([4 x i8], [4 x i8]* @.str.2, i64 0, i64 0))
  br label %110

29:                                               ; preds = %24
  %30 = getelementptr inbounds [300 x i32], [300 x i32]* %2, i64 0, i64 0
  %31 = load i32, i32* %30, align 16
  store i32 %31, i32* %4, align 4
  store i32 0, i32* %6, align 4
  br label %32

32:                                               ; preds = %49, %29
  %33 = load i32, i32* %6, align 4
  %34 = load i32, i32* %7, align 4
  %35 = icmp slt i32 %33, %34
  br i1 %35, label %36, label %52

36:                                               ; preds = %32
  %37 = load i32, i32* %6, align 4
  %38 = sext i32 %37 to i64
  %39 = getelementptr inbounds [300 x i32], [300 x i32]* %2, i64 0, i64 %38
  %40 = load i32, i32* %39, align 4
  %41 = load i32, i32* %4, align 4
  %42 = icmp sgt i32 %40, %41
  br i1 %42, label %43, label %48

43:                                               ; preds = %36
  %44 = load i32, i32* %6, align 4
  %45 = sext i32 %44 to i64
  %46 = getelementptr inbounds [300 x i32], [300 x i32]* %2, i64 0, i64 %45
  %47 = load i32, i32* %46, align 4
  store i32 %47, i32* %4, align 4
  br label %48

48:                                               ; preds = %43, %36
  br label %49

49:                                               ; preds = %48
  %50 = load i32, i32* %6, align 4
  %51 = add nsw i32 %50, 1
  store i32 %51, i32* %6, align 4
  br label %32

52:                                               ; preds = %32
  store i32 0, i32* %6, align 4
  br label %53

53:                                               ; preds = %75, %52
  %54 = load i32, i32* %6, align 4
  %55 = load i32, i32* %7, align 4
  %56 = icmp slt i32 %54, %55
  br i1 %56, label %57, label %78

57:                                               ; preds = %53
  %58 = load i32, i32* %6, align 4
  %59 = sext i32 %58 to i64
  %60 = getelementptr inbounds [300 x i32], [300 x i32]* %2, i64 0, i64 %59
  %61 = load i32, i32* %60, align 4
  %62 = load i32, i32* %4, align 4
  %63 = icmp slt i32 %61, %62
  br i1 %63, label %64, label %74

64:                                               ; preds = %57
  %65 = load i32, i32* %6, align 4
  %66 = sext i32 %65 to i64
  %67 = getelementptr inbounds [300 x i32], [300 x i32]* %2, i64 0, i64 %66
  %68 = load i32, i32* %67, align 4
  %69 = load i32, i32* %8, align 4
  %70 = sext i32 %69 to i64
  %71 = getelementptr inbounds [300 x i32], [300 x i32]* %3, i64 0, i64 %70
  store i32 %68, i32* %71, align 4
  %72 = load i32, i32* %8, align 4
  %73 = add nsw i32 %72, 1
  store i32 %73, i32* %8, align 4
  br label %74

74:                                               ; preds = %64, %57
  br label %75

75:                                               ; preds = %74
  %76 = load i32, i32* %6, align 4
  %77 = add nsw i32 %76, 1
  store i32 %77, i32* %6, align 4
  br label %53

78:                                               ; preds = %53
  %79 = getelementptr inbounds [300 x i32], [300 x i32]* %3, i64 0, i64 0
  %80 = load i32, i32* %79, align 16
  store i32 %80, i32* %5, align 4
  store i32 0, i32* %9, align 4
  br label %81

81:                                               ; preds = %98, %78
  %82 = load i32, i32* %9, align 4
  %83 = load i32, i32* %8, align 4
  %84 = icmp slt i32 %82, %83
  br i1 %84, label %85, label %101

85:                                               ; preds = %81
  %86 = load i32, i32* %9, align 4
  %87 = sext i32 %86 to i64
  %88 = getelementptr inbounds [300 x i32], [300 x i32]* %3, i64 0, i64 %87
  %89 = load i32, i32* %88, align 4
  %90 = load i32, i32* %5, align 4
  %91 = icmp sgt i32 %89, %90
  br i1 %91, label %92, label %97

92:                                               ; preds = %85
  %93 = load i32, i32* %9, align 4
  %94 = sext i32 %93 to i64
  %95 = getelementptr inbounds [300 x i32], [300 x i32]* %3, i64 0, i64 %94
  %96 = load i32, i32* %95, align 4
  store i32 %96, i32* %5, align 4
  br label %97

97:                                               ; preds = %92, %85
  br label %98

98:                                               ; preds = %97
  %99 = load i32, i32* %9, align 4
  %100 = add nsw i32 %99, 1
  store i32 %100, i32* %9, align 4
  br label %81

101:                                              ; preds = %81
  %102 = load i32, i32* %8, align 4
  %103 = icmp eq i32 %102, 0
  br i1 %103, label %104, label %106

104:                                              ; preds = %101
  %105 = call i32 (i8*, ...) @printf(i8* getelementptr inbounds ([3 x i8], [3 x i8]* @.str.3, i64 0, i64 0))
  br label %109

106:                                              ; preds = %101
  %107 = load i32, i32* %5, align 4
  %108 = call i32 (i8*, ...) @printf(i8* getelementptr inbounds ([4 x i8], [4 x i8]* @.str.4, i64 0, i64 0), i32 %107)
  br label %109

109:                                              ; preds = %106, %104
  br label %110

110:                                              ; preds = %109, %27
  ret i32 0
}

declare dso_local i32 @__isoc99_scanf(i8*, ...) #1

declare dso_local i32 @printf(i8*, ...) #1


!llvm.module.flags = !{!0}
!llvm.ident = !{!1}

!0 = !{i32 1, !"wchar_size", i32 4}
!1 = !{!"clang version 10.0.0-4ubuntu1 "}
